; Function Attrs: nounwind uwtable
define internal range(i32 -41, 16) i32 @cvNlsResidualSensStg1(ptr noundef %0, ptr noundef %1, ptr noundef %2) #0 {
  %4 = icmp eq ptr %2, null
  br i1 %4, label %5, label %6

5:                                                ; preds = %3
  tail call void (ptr, i32, i32, ptr, ptr, ptr, ...) @cvProcessError(ptr noundef null, i32 noundef -21, i32 noundef 316, ptr noundef nonnull @__func__.cvNlsResidualSensStg1, ptr noundef nonnull @.str, ptr noundef nonnull @.str.1) #2
  br label %51

6:                                                ; preds = %3
  %7 = getelementptr inbounds nuw i8, ptr %2, i64 1892
  %8 = load i32, ptr %7, align 4
  %9 = getelementptr inbounds nuw i8, ptr %2, i64 648
  %10 = load ptr, ptr %9, align 8
  %11 = sext i32 %8 to i64
  %12 = getelementptr inbounds ptr, ptr %10, i64 %11
  %13 = load ptr, ptr %12, align 8
  %14 = getelementptr inbounds nuw i8, ptr %2, i64 760
  %15 = load ptr, ptr %14, align 8
  %16 = getelementptr inbounds ptr, ptr %15, i64 %11
  %17 = load ptr, ptr %16, align 8
  tail call void @N_VLinearSum(double noundef 1.000000e+00, ptr noundef %13, double noundef 1.000000e+00, ptr noundef %0, ptr noundef %17) #2
  %18 = getelementptr inbounds nuw i8, ptr %2, i64 1032
  %19 = load double, ptr %18, align 8
  %20 = getelementptr inbounds nuw i8, ptr %2, i64 448
  %21 = load ptr, ptr %20, align 8
  %22 = getelementptr inbounds nuw i8, ptr %2, i64 472
  %23 = load ptr, ptr %22, align 8
  %24 = load ptr, ptr %14, align 8
  %25 = getelementptr inbounds ptr, ptr %24, i64 %11
  %26 = load ptr, ptr %25, align 8
  %27 = getelementptr inbounds nuw i8, ptr %2, i64 784
  %28 = load ptr, ptr %27, align 8
  %29 = getelementptr inbounds ptr, ptr %28, i64 %11
  %30 = load ptr, ptr %29, align 8
  %31 = getelementptr inbounds nuw i8, ptr %2, i64 480
  %32 = load ptr, ptr %31, align 8
  %33 = getelementptr inbounds nuw i8, ptr %2, i64 488
  %34 = load ptr, ptr %33, align 8
  %35 = tail call i32 @cvSensRhs1Wrapper(ptr noundef nonnull %2, double noundef %19, ptr noundef %21, ptr noundef %23, i32 noundef %8, ptr noundef %26, ptr noundef %30, ptr noundef %32, ptr noundef %34) #2
  %36 = icmp slt i32 %35, 0
  br i1 %36, label %51, label %37

37:                                               ; preds = %6
  %.not = icmp eq i32 %35, 0
  br i1 %.not, label %38, label %51

38:                                               ; preds = %37
  %39 = getelementptr inbounds nuw i8, ptr %2, i64 1312
  %40 = load double, ptr %39, align 8
  %41 = getelementptr inbounds nuw i8, ptr %2, i64 656
  %42 = load ptr, ptr %41, align 8
  %43 = getelementptr inbounds ptr, ptr %42, i64 %11
  %44 = load ptr, ptr %43, align 8
  tail call void @N_VLinearSum(double noundef %40, ptr noundef %44, double noundef 1.000000e+00, ptr noundef %0, ptr noundef %1) #2
  %45 = getelementptr inbounds nuw i8, ptr %2, i64 1320
  %46 = load double, ptr %45, align 8
  %47 = fneg double %46
  %48 = load ptr, ptr %27, align 8
  %49 = getelementptr inbounds ptr, ptr %48, i64 %11
  %50 = load ptr, ptr %49, align 8
  tail call void @N_VLinearSum(double noundef %47, ptr noundef %50, double noundef 1.000000e+00, ptr noundef %1, ptr noundef %1) #2
  br label %51

51:                                               ; preds = %37, %6, %38, %5
  %.0 = phi i32 [ -21, %5 ], [ 0, %38 ], [ -41, %6 ], [ 15, %37 ]
  ret i32 %.0
}